
There are no discarded input sections

Memory Configuration

Name             Origin             Length             Attributes
ram              0x0000000080200000 0x0000000008000000 axrl!w
*default*        0x0000000000000000 0xffffffffffffffff

Linker script and memory map

LOAD entry.o
LOAD kerneltrap.o
LOAD switch.o
LOAD link_app.o
LOAD sbi.o
LOAD main.o
LOAD printk.o
LOAD trap.o
LOAD syscall.o
LOAD string.o
LOAD app.o
LOAD task.o
LOAD timer.o
LOAD printf.o
LOAD vsprintf.o
LOAD address.o
LOAD alloc.o
LOAD stack.o
LOAD assert.o
LOAD loader.o
                0x0000000080200000                BASE_ADDRESS = 0x80200000
                0x0000000000000000                skernel = .

.text           0x0000000080200000     0x5000
 *(.text.entry)
 .text.entry    0x0000000080200000        0xc entry.o
                0x0000000080200000                _start
                0x0000000080201000                . = ALIGN (0x1000)
 *fill*         0x000000008020000c      0xff4 
                0x0000000080201000                trampoline = .
 *(.text.trampoline)
 .text.trampoline
                0x0000000080201000       0xd2 kerneltrap.o
                0x0000000080201000                __alltraps
                0x0000000080201070                __restore
                0x0000000080202000                . = ALIGN (0x1000)
 *fill*         0x00000000802010d2      0xf2e 
                0x0000000080202000                _strampoline = .
 *(.text .text.*)
 .text          0x0000000080202000        0x0 entry.o
 .text          0x0000000080202000        0x0 kerneltrap.o
 .text          0x0000000080202000       0x6a switch.o
                0x0000000080202000                __switch
 *fill*         0x000000008020206a        0x6 
 .text          0x0000000080202070        0x2 link_app.o
 .text          0x0000000080202072       0xe4 sbi.o
                0x0000000080202072                sbi_ecall
                0x00000000802020f6                sbi_console_putchar
                0x0000000080202124                sbi_set_timer
 .text          0x0000000080202156       0x4e main.o
                0x0000000080202156                os_main
 .text          0x00000000802021a4      0x142 printk.o
                0x00000000802021a4                uart_puts
                0x0000000080202260                printk
                0x00000000802022b8                panic
 .text          0x00000000802022e6      0x1b6 trap.o
                0x000000008020231a                trap_from_kernel
                0x0000000080202338                set_kernel_trap_entry
                0x0000000080202358                set_user_trap_entry
                0x0000000080202378                trap_handler
                0x000000008020243a                trap_return
 .text          0x000000008020249c      0x1c0 syscall.o
                0x000000008020249c                __SYSCALL
                0x0000000080202524                translated_byte_buffer
                0x00000000802025cc                __sys_write
                0x000000008020262e                __sys_yield
                0x0000000080202644                __sys_gettime
 .text          0x000000008020265c       0xe2 string.o
                0x000000008020265c                strlen
                0x0000000080202698                memcpy
                0x00000000802026ee                memset
 .text          0x000000008020273e       0xae app.o
                0x000000008020273e                syscall
                0x0000000080202772                sys_write
                0x00000000802027a8                sys_yield
                0x00000000802027ca                sys_gettime
 .text          0x00000000802027ec      0x798 task.o
                0x0000000080202820                tcx_init
                0x0000000080202898                task_create
                0x00000000802029ca                schedule
                0x0000000080202ace                task_delay
                0x0000000080202b10                proc_mapstacks
                0x0000000080202c28                proc_trap
                0x0000000080202c7a                proc_pagetable
                0x0000000080202d18                task_create_pt
                0x0000000080202da8                get_current_trap_cx
                0x0000000080202dd4                current_user_token
                0x0000000080202e06                app_init
                0x0000000080202f34                run_first_task
 .text          0x0000000080202f84      0x120 timer.o
                0x0000000080203006                set_next_trigger
                0x000000008020302c                timer_init
                0x000000008020307a                get_time_us
 .text          0x00000000802030a4       0xc2 printf.o
                0x000000008020310e                printf
 .text          0x0000000080203166      0x430 vsprintf.o
                0x0000000080203166                _vsnprintf
 .text          0x0000000080203596      0x840 address.o
                0x00000000802035dc                phys_addr_from_size_t
                0x0000000080203600                phys_page_num_from_size_t
                0x0000000080203624                size_t_from_phys_addr
                0x000000008020363a                size_t_from_phys_page_num
                0x0000000080203650                phys_addr_from_phys_page_num
                0x0000000080203670                virt_addr_from_size_t
                0x0000000080203694                virt_page_num_from_size_t
                0x00000000802036ba                size_t_from_virt_addr
                0x00000000802036e8                size_t_from_virt_page_num
                0x00000000802036fe                virt_page_num_from_virt_addr
                0x000000008020371e                floor_phys
                0x000000008020373e                ceil_phys
                0x0000000080203764                floor_virts
                0x0000000080203784                PageTableEntry_new
                0x00000000802037b2                PageTableEntry_empty
                0x00000000802037c8                PageTableEntry_ppn
                0x00000000802037f2                PageTableEntry_flags
                0x000000008020380e                PageTableEntry_is_valid
                0x0000000080203844                get_bytes_array
                0x000000008020386c                get_pte_array
                0x0000000080203894                indexes_from_vpn
                0x0000000080203922                find_pte_create
                0x00000000802039ec                find_pte
                0x0000000080203a96                PageTable_map
                0x0000000080203b84                PageTable_unmap
                0x0000000080203bee                kvmmake
                0x0000000080203d34                kvminit
                0x0000000080203d70                kvminithart
 .text          0x0000000080203dd6      0x208 alloc.o
                0x0000000080203dd6                StackFrameAllocator_init
                0x0000000080203e14                StackFrameAllocator_alloc
                0x0000000080203e98                StackFrameAllocator_dealloc
                0x0000000080203f3a                frame_alloctor_init
                0x0000000080203fb6                kalloc
 .text          0x0000000080203fde      0x18e stack.o
                0x0000000080203fde                initStack
                0x0000000080203ffe                isEmpty
                0x000000008020402c                isFull
                0x000000008020405e                push
                0x00000000802040c8                pop
                0x0000000080204124                top
 .text          0x000000008020416c       0x6c assert.o
                0x000000008020418a                assertion_failure
 .text          0x00000000802041d8      0x3f2 loader.o
                0x00000000802041d8                get_num_app
                0x00000000802041f0                get_app_data
                0x0000000080204324                load_app
                0x0000000080205000                . = ALIGN (0x1000)
 *fill*         0x00000000802045ca      0xa36 
                0x0000000080205000                PROVIDE (etext = .)

.rodata         0x0000000080205000      0x4c3
 *(.rodata .rodata.*)
 .rodata        0x0000000080205000       0x11 main.o
 *fill*         0x0000000080205011        0x7 
 .rodata        0x0000000080205018       0x32 printk.o
 *fill*         0x000000008020504a        0x6 
 .rodata        0x0000000080205050       0x56 trap.o
 *fill*         0x00000000802050a6        0x2 
 .rodata        0x00000000802050a8       0x45 syscall.o
 *fill*         0x00000000802050ed        0x3 
 .rodata        0x00000000802050f0       0xd8 task.o
 .rodata        0x00000000802051c8       0x58 vsprintf.o
 .rodata        0x0000000080205220       0xe2 address.o
 *fill*         0x0000000080205302        0x6 
 .rodata        0x0000000080205308       0x50 alloc.o
 .rodata        0x0000000080205358       0x38 stack.o
 .rodata        0x0000000080205390       0x74 assert.o
 *fill*         0x0000000080205404        0x4 
 .rodata        0x0000000080205408       0xbb loader.o

.rela.dyn       0x00000000802054c8        0x0
 .rela.text     0x00000000802054c8        0x0 entry.o

.data           0x00000000802054c8     0x5978
                0x0000000080206000                . = ALIGN (0x1000)
 *fill*         0x00000000802054c8      0xb38 
 *(.sdata .sdata.*)
 *(.data .data.*)
 .data          0x0000000080206000        0x0 entry.o
 .data          0x0000000080206000        0x0 kerneltrap.o
 .data          0x0000000080206000        0x0 switch.o
 .data          0x0000000080206000     0x4e40 link_app.o
                0x0000000080206000                _num_app
                0x0000000080206020                app_0_start
                0x0000000080208730                app_0_end
                0x0000000080208730                app_1_start
                0x000000008020ae40                app_1_end
 .data          0x000000008020ae40        0x0 sbi.o
 .data          0x000000008020ae40        0x0 main.o
 .data          0x000000008020ae40        0x0 printk.o
 .data          0x000000008020ae40        0x0 trap.o
 .data          0x000000008020ae40        0x0 syscall.o
 .data          0x000000008020ae40        0x0 string.o
 .data          0x000000008020ae40        0x0 app.o
 .data          0x000000008020ae40        0x0 task.o
 .data          0x000000008020ae40        0x0 timer.o
 .data          0x000000008020ae40        0x0 printf.o
 .data          0x000000008020ae40        0x0 vsprintf.o
 .data          0x000000008020ae40        0x0 address.o
 .data          0x000000008020ae40        0x0 alloc.o
 .data          0x000000008020ae40        0x0 stack.o
 .data          0x000000008020ae40        0x0 assert.o
 .data          0x000000008020ae40        0x0 loader.o
                [!provide]                        PROVIDE (_data_end = .)

.bss            0x000000008020ae40    0x4c710
 *(.sbss .sbss.*)
 .sbss          0x000000008020ae40       0x10 address.o
                0x000000008020ae40                kernel_pagetable
                0x000000008020ae48                kernel_satp
 *(.bss .bss.*)
 .bss           0x000000008020ae50        0x0 entry.o
 .bss.stack     0x000000008020ae50    0x10000 entry.o
                0x000000008020ae50                boot_stack_lower_bound
                0x000000008021ae50                boot_stack_top
 .bss           0x000000008021ae50        0x0 kerneltrap.o
 .bss           0x000000008021ae50        0x0 switch.o
 .bss           0x000000008021ae50        0x0 link_app.o
 .bss           0x000000008021ae50        0x0 sbi.o
 .bss           0x000000008021ae50        0x0 main.o
 .bss           0x000000008021ae50      0x3e8 printk.o
 .bss           0x000000008021b238        0x0 trap.o
 .bss           0x000000008021b238        0x0 syscall.o
 .bss           0x000000008021b238        0x0 string.o
 .bss           0x000000008021b238        0x0 app.o
 .bss           0x000000008021b238    0x28698 task.o
                0x000000008021b238                KernelStack
                0x000000008022f238                UserStack
                0x0000000080243238                tasks
 .bss           0x00000000802438d0        0x0 timer.o
 .bss           0x00000000802438d0      0x3e8 printf.o
 .bss           0x0000000080243cb8        0x0 vsprintf.o
 .bss           0x0000000080243cb8        0x0 address.o
 .bss           0x0000000080243cb8    0x13898 alloc.o
                0x0000000080243cb8                FrameAllocatorImpl
 .bss           0x0000000080257550        0x0 stack.o
 .bss           0x0000000080257550        0x0 assert.o
 .bss           0x0000000080257550        0x0 loader.o
 *(COMMON)
                0x0000000080257550                PROVIDE (kernelend = .)
OUTPUT(os.elf elf64-littleriscv)

.riscv.attributes
                0x0000000000000000       0x6a
 .riscv.attributes
                0x0000000000000000       0x64 entry.o
 .riscv.attributes
                0x0000000000000064       0x68 kerneltrap.o
 .riscv.attributes
                0x00000000000000cc       0x64 switch.o
 .riscv.attributes
                0x0000000000000130       0x64 link_app.o
 .riscv.attributes
                0x0000000000000194       0x66 sbi.o
 .riscv.attributes
                0x00000000000001fa       0x66 main.o
 .riscv.attributes
                0x0000000000000260       0x66 printk.o
 .riscv.attributes
                0x00000000000002c6       0x6a trap.o
 .riscv.attributes
                0x0000000000000330       0x66 syscall.o
 .riscv.attributes
                0x0000000000000396       0x66 string.o
 .riscv.attributes
                0x00000000000003fc       0x66 app.o
 .riscv.attributes
                0x0000000000000462       0x6a task.o
 .riscv.attributes
                0x00000000000004cc       0x6a timer.o
 .riscv.attributes
                0x0000000000000536       0x66 printf.o
 .riscv.attributes
                0x000000000000059c       0x66 vsprintf.o
 .riscv.attributes
                0x0000000000000602       0x6a address.o
 .riscv.attributes
                0x000000000000066c       0x66 alloc.o
 .riscv.attributes
                0x00000000000006d2       0x66 stack.o
 .riscv.attributes
                0x0000000000000738       0x66 assert.o
 .riscv.attributes
                0x000000000000079e       0x66 loader.o

.comment        0x0000000000000000        0xf
 .comment       0x0000000000000000        0xf sbi.o
                                         0x10 (size before relaxing)
 .comment       0x000000000000000f       0x10 main.o
 .comment       0x000000000000000f       0x10 printk.o
 .comment       0x000000000000000f       0x10 trap.o
 .comment       0x000000000000000f       0x10 syscall.o
 .comment       0x000000000000000f       0x10 string.o
 .comment       0x000000000000000f       0x10 app.o
 .comment       0x000000000000000f       0x10 task.o
 .comment       0x000000000000000f       0x10 timer.o
 .comment       0x000000000000000f       0x10 printf.o
 .comment       0x000000000000000f       0x10 vsprintf.o
 .comment       0x000000000000000f       0x10 address.o
 .comment       0x000000000000000f       0x10 alloc.o
 .comment       0x000000000000000f       0x10 stack.o
 .comment       0x000000000000000f       0x10 assert.o
 .comment       0x000000000000000f       0x10 loader.o

.debug_line     0x0000000000000000     0x2865
 .debug_line    0x0000000000000000       0x52 entry.o
 .debug_line    0x0000000000000052      0x238 kerneltrap.o
 .debug_line    0x000000000000028a       0x72 switch.o
 .debug_line    0x00000000000002fc       0xef sbi.o
 .debug_line    0x00000000000003eb       0xc5 main.o
 .debug_line    0x00000000000004b0      0x144 printk.o
 .debug_line    0x00000000000005f4      0x207 trap.o
 .debug_line    0x00000000000007fb      0x1a6 syscall.o
 .debug_line    0x00000000000009a1      0x12b string.o
 .debug_line    0x0000000000000acc       0xd8 app.o
 .debug_line    0x0000000000000ba4      0x576 task.o
 .debug_line    0x000000000000111a      0x17c timer.o
 .debug_line    0x0000000000001296       0xd0 printf.o
 .debug_line    0x0000000000001366      0x4f6 vsprintf.o
 .debug_line    0x000000000000185c      0x816 address.o
 .debug_line    0x0000000000002072      0x23b alloc.o
 .debug_line    0x00000000000022ad      0x19b stack.o
 .debug_line    0x0000000000002448       0x85 assert.o
 .debug_line    0x00000000000024cd      0x398 loader.o

.debug_line_str
                0x0000000000000000      0x276
 .debug_line_str
                0x0000000000000000      0x276 entry.o
                                         0x27 (size before relaxing)
 .debug_line_str
                0x0000000000000276       0x2c kerneltrap.o
 .debug_line_str
                0x0000000000000276       0x28 switch.o
 .debug_line_str
                0x0000000000000276      0x106 sbi.o
 .debug_line_str
                0x0000000000000276       0xe5 main.o
 .debug_line_str
                0x0000000000000276       0xd2 printk.o
 .debug_line_str
                0x0000000000000276       0xe4 trap.o
 .debug_line_str
                0x0000000000000276       0xe5 syscall.o
 .debug_line_str
                0x0000000000000276       0xaf string.o
 .debug_line_str
                0x0000000000000276       0xbb app.o
 .debug_line_str
                0x0000000000000276       0xff task.o
 .debug_line_str
                0x0000000000000276       0x78 timer.o
 .debug_line_str
                0x0000000000000276       0xd2 printf.o
 .debug_line_str
                0x0000000000000276       0xbe vsprintf.o
 .debug_line_str
                0x0000000000000276       0xab address.o
 .debug_line_str
                0x0000000000000276       0xec alloc.o
 .debug_line_str
                0x0000000000000276       0x7b stack.o
 .debug_line_str
                0x0000000000000276       0x6e assert.o
 .debug_line_str
                0x0000000000000276      0x10a loader.o

.debug_info     0x0000000000000000     0x39db
 .debug_info    0x0000000000000000       0x28 entry.o
 .debug_info    0x0000000000000028       0x29 kerneltrap.o
 .debug_info    0x0000000000000051       0x28 switch.o
 .debug_info    0x0000000000000079      0x2a8 sbi.o
 .debug_info    0x0000000000000321      0x121 main.o
 .debug_info    0x0000000000000442      0x1f6 printk.o
 .debug_info    0x0000000000000638      0x41f trap.o
 .debug_info    0x0000000000000a57      0x3d0 syscall.o
 .debug_info    0x0000000000000e27      0x186 string.o
 .debug_info    0x0000000000000fad      0x1b5 app.o
 .debug_info    0x0000000000001162      0x92a task.o
 .debug_info    0x0000000000001a8c      0x1fe timer.o
 .debug_info    0x0000000000001c8a      0x1d3 printf.o
 .debug_info    0x0000000000001e5d      0x233 vsprintf.o
 .debug_info    0x0000000000002090      0xb5f address.o
 .debug_info    0x0000000000002bef      0x37f alloc.o
 .debug_info    0x0000000000002f6e      0x215 stack.o
 .debug_info    0x0000000000003183      0x11c assert.o
 .debug_info    0x000000000000329f      0x73c loader.o

.debug_abbrev   0x0000000000000000     0x15ef
 .debug_abbrev  0x0000000000000000       0x14 entry.o
 .debug_abbrev  0x0000000000000014       0x14 kerneltrap.o
 .debug_abbrev  0x0000000000000028       0x14 switch.o
 .debug_abbrev  0x000000000000003c       0xf6 sbi.o
 .debug_abbrev  0x0000000000000132       0xc1 main.o
 .debug_abbrev  0x00000000000001f3      0x13e printk.o
 .debug_abbrev  0x0000000000000331      0x194 trap.o
 .debug_abbrev  0x00000000000004c5      0x1d8 syscall.o
 .debug_abbrev  0x000000000000069d       0xab string.o
 .debug_abbrev  0x0000000000000748       0xd3 app.o
 .debug_abbrev  0x000000000000081b      0x29f task.o
 .debug_abbrev  0x0000000000000aba      0x129 timer.o
 .debug_abbrev  0x0000000000000be3      0x111 printf.o
 .debug_abbrev  0x0000000000000cf4       0xbb vsprintf.o
 .debug_abbrev  0x0000000000000daf      0x292 address.o
 .debug_abbrev  0x0000000000001041      0x1ea alloc.o
 .debug_abbrev  0x000000000000122b      0x134 stack.o
 .debug_abbrev  0x000000000000135f       0xb3 assert.o
 .debug_abbrev  0x0000000000001412      0x1dd loader.o

.debug_aranges  0x0000000000000000      0x390
 .debug_aranges
                0x0000000000000000       0x30 entry.o
 .debug_aranges
                0x0000000000000030       0x30 kerneltrap.o
 .debug_aranges
                0x0000000000000060       0x30 switch.o
 .debug_aranges
                0x0000000000000090       0x30 sbi.o
 .debug_aranges
                0x00000000000000c0       0x30 main.o
 .debug_aranges
                0x00000000000000f0       0x30 printk.o
 .debug_aranges
                0x0000000000000120       0x30 trap.o
 .debug_aranges
                0x0000000000000150       0x30 syscall.o
 .debug_aranges
                0x0000000000000180       0x30 string.o
 .debug_aranges
                0x00000000000001b0       0x30 app.o
 .debug_aranges
                0x00000000000001e0       0x30 task.o
 .debug_aranges
                0x0000000000000210       0x30 timer.o
 .debug_aranges
                0x0000000000000240       0x30 printf.o
 .debug_aranges
                0x0000000000000270       0x30 vsprintf.o
 .debug_aranges
                0x00000000000002a0       0x30 address.o
 .debug_aranges
                0x00000000000002d0       0x30 alloc.o
 .debug_aranges
                0x0000000000000300       0x30 stack.o
 .debug_aranges
                0x0000000000000330       0x30 assert.o
 .debug_aranges
                0x0000000000000360       0x30 loader.o

.debug_str      0x0000000000000000      0xc63
 .debug_str     0x0000000000000000      0xc63 entry.o
                                         0x35 (size before relaxing)
 .debug_str     0x0000000000000c63       0x3a kerneltrap.o
 .debug_str     0x0000000000000c63       0x36 switch.o
 .debug_str     0x0000000000000c63      0x2e7 sbi.o
 .debug_str     0x0000000000000c63      0x17d main.o
 .debug_str     0x0000000000000c63      0x173 printk.o
 .debug_str     0x0000000000000c63      0x24f trap.o
 .debug_str     0x0000000000000c63      0x27e syscall.o
 .debug_str     0x0000000000000c63      0x124 string.o
 .debug_str     0x0000000000000c63      0x154 app.o
 .debug_str     0x0000000000000c63      0x408 task.o
 .debug_str     0x0000000000000c63      0x177 timer.o
 .debug_str     0x0000000000000c63      0x176 printf.o
 .debug_str     0x0000000000000c63      0x158 vsprintf.o
 .debug_str     0x0000000000000c63      0x4ca address.o
 .debug_str     0x0000000000000c63      0x257 alloc.o
 .debug_str     0x0000000000000c63      0x148 stack.o
 .debug_str     0x0000000000000c63      0x12f assert.o
 .debug_str     0x0000000000000c63      0x403 loader.o

.debug_frame    0x0000000000000000     0x1408
 .debug_frame   0x0000000000000000       0xa0 sbi.o
 .debug_frame   0x00000000000000a0       0x40 main.o
 .debug_frame   0x00000000000000e0       0xc8 printk.o
 .debug_frame   0x00000000000001a8      0x160 trap.o
 .debug_frame   0x0000000000000308      0x100 syscall.o
 .debug_frame   0x0000000000000408       0xa0 string.o
 .debug_frame   0x00000000000004a8       0xd0 app.o
 .debug_frame   0x0000000000000578      0x2e0 task.o
 .debug_frame   0x0000000000000858      0x190 timer.o
 .debug_frame   0x00000000000009e8       0x70 printf.o
 .debug_frame   0x0000000000000a58       0x40 vsprintf.o
 .debug_frame   0x0000000000000a98      0x5e8 address.o
 .debug_frame   0x0000000000001080      0x108 alloc.o
 .debug_frame   0x0000000000001188      0x130 stack.o
 .debug_frame   0x00000000000012b8       0x68 assert.o
 .debug_frame   0x0000000000001320       0xe8 loader.o

.debug_rnglists
                0x0000000000000000       0x2e
 .debug_rnglists
                0x0000000000000000       0x17 address.o
 .debug_rnglists
                0x0000000000000017       0x17 alloc.o
